; Function Attrs: mustprogress nounwind uwtable
define hidden void @_ZN7ciKlass10print_implEP12outputStream(ptr noundef nonnull align 8 dereferenceable(44) %0, ptr noundef nonnull %1) unnamed_addr #0 align 2 {
  tail call void (ptr, ptr, ...) @_ZN12outputStream5printEPKcz(ptr noundef nonnull align 8 dereferenceable(56) %1, ptr noundef nonnull @.str) #5
  %3 = load ptr, ptr %0, align 8
  %4 = getelementptr inbounds i8, ptr %3, i64 136
  %5 = load ptr, ptr %4, align 8
  tail call void %5(ptr noundef nonnull align 8 dereferenceable(44) %0, ptr noundef nonnull %1) #5
  %6 = getelementptr inbounds i8, ptr %0, i64 16
  %7 = load ptr, ptr %6, align 8
  %.not.i = icmp eq ptr %7, null
  br i1 %.not.i, label %_ZNK10ciMetadata9is_loadedEv.exit, label %_ZNK10ciMetadata9is_loadedEv.exit.thread

_ZNK10ciMetadata9is_loadedEv.exit:                ; preds = %2
  %8 = load ptr, ptr %0, align 8
  %9 = getelementptr inbounds i8, ptr %8, i64 32
  %10 = load ptr, ptr %9, align 8
  %11 = tail call noundef zeroext i1 %10(ptr noundef nonnull align 8 dereferenceable(24) %0) #5
  br i1 %11, label %_ZNK10ciMetadata9is_loadedEv.exit.thread, label %12

_ZNK10ciMetadata9is_loadedEv.exit.thread:         ; preds = %2, %_ZNK10ciMetadata9is_loadedEv.exit
  br label %12

12:                                               ; preds = %_ZNK10ciMetadata9is_loadedEv.exit, %_ZNK10ciMetadata9is_loadedEv.exit.thread
  %13 = phi ptr [ @.str.5, %_ZNK10ciMetadata9is_loadedEv.exit.thread ], [ @.str.6, %_ZNK10ciMetadata9is_loadedEv.exit ]
  tail call void (ptr, ptr, ...) @_ZN12outputStream5printEPKcz(ptr noundef nonnull align 8 dereferenceable(56) %1, ptr noundef nonnull @.str.4, ptr noundef nonnull %13) #5
  ret void
}